; Function Attrs: nounwind uwtable
define internal fastcc void @agxbputc(ptr noundef captures(none) %0, i8 noundef signext %1) unnamed_addr #0 {
  %3 = getelementptr i8, ptr %0, i64 31
  %.val.i = load i8, ptr %3, align 1
  %.not.i = icmp eq i8 %.val.i, -1
  br i1 %.not.i, label %agxbsizeof.exit, label %agxbsizeof.exit.thread

agxbsizeof.exit:                                  ; preds = %2
  %4 = getelementptr inbounds nuw i8, ptr %0, i64 8
  %5 = load i64, ptr %4, align 8
  %6 = getelementptr inbounds nuw i8, ptr %0, i64 16
  %7 = load i64, ptr %6, align 8
  %.fr.i = freeze i64 %7
  %.not = icmp ult i64 %5, %.fr.i
  br i1 %.not, label %._crit_edge, label %agxbsizeof.exit.i

agxbsizeof.exit.thread:                           ; preds = %2
  %.not25 = icmp ult i8 %.val.i, 31
  br i1 %.not25, label %.thread35, label %.thread

agxbsizeof.exit.i:                                ; preds = %agxbsizeof.exit
  %8 = icmp eq i64 %.fr.i, 0
  %9 = shl i64 %.fr.i, 1
  %spec.select44.i = select i1 %8, i64 8192, i64 %9
  %10 = add i64 %.fr.i, 1
  %spec.select33.i = tail call i64 @llvm.umax.i64(i64 %10, i64 %spec.select44.i)
  %11 = load ptr, ptr %0, align 8
  %12 = icmp eq i64 %spec.select33.i, 0
  br i1 %12, label %13, label %14

13:                                               ; preds = %agxbsizeof.exit.i
  tail call void @free(ptr noundef %11) #22
  br label %.thread26

14:                                               ; preds = %agxbsizeof.exit.i
  %15 = tail call ptr @realloc(ptr noundef %11, i64 noundef %spec.select33.i) #28
  %16 = icmp eq ptr %15, null
  br i1 %16, label %17, label %20

17:                                               ; preds = %14
  %18 = load ptr, ptr @stderr, align 8
  %19 = tail call i32 (ptr, ptr, ...) @fprintf(ptr noundef %18, ptr noundef nonnull @.str.106, i64 noundef %spec.select33.i) #25
  tail call fastcc void @graphviz_exit() #29
  unreachable

20:                                               ; preds = %14
  %21 = icmp ugt i64 %spec.select33.i, %.fr.i
  br i1 %21, label %22, label %.thread26

22:                                               ; preds = %20
  %23 = getelementptr inbounds i8, ptr %15, i64 %.fr.i
  %24 = sub nuw i64 %spec.select33.i, %.fr.i
  tail call void @llvm.memset.p0.i64(ptr nonnull align 1 %23, i8 0, i64 %24, i1 false)
  br label %.thread26

.thread:                                          ; preds = %agxbsizeof.exit.thread
  %25 = tail call noalias dereferenceable_or_null(62) ptr @calloc(i64 noundef 62, i64 noundef 1) #23
  %26 = icmp eq ptr %25, null
  br i1 %26, label %27, label %gv_calloc.exit.i

27:                                               ; preds = %.thread
  %28 = load ptr, ptr @stderr, align 8
  %29 = tail call i32 (ptr, ptr, ...) @fprintf(ptr noundef %28, ptr noundef nonnull @.str.106, i64 noundef 62) #25
  tail call fastcc void @graphviz_exit() #29
  unreachable

gv_calloc.exit.i:                                 ; preds = %.thread
  %30 = zext i8 %.val.i to i64
  tail call void @llvm.memcpy.p0.p0.i64(ptr nonnull align 1 %25, ptr nonnull align 8 %0, i64 %30, i1 false)
  %31 = getelementptr inbounds nuw i8, ptr %0, i64 8
  store i64 %30, ptr %31, align 8
  br label %.thread26

.thread26:                                        ; preds = %gv_calloc.exit.i, %22, %20, %13
  %spec.select3641.i = phi i64 [ 62, %gv_calloc.exit.i ], [ 0, %13 ], [ %spec.select33.i, %20 ], [ %spec.select33.i, %22 ]
  %.0.i15 = phi ptr [ %25, %gv_calloc.exit.i ], [ null, %13 ], [ %15, %20 ], [ %15, %22 ]
  store ptr %.0.i15, ptr %0, align 8
  %32 = getelementptr inbounds nuw i8, ptr %0, i64 16
  store i64 %spec.select3641.i, ptr %32, align 8
  store i8 -1, ptr %3, align 1
  %.phi.trans.insert = getelementptr inbounds nuw i8, ptr %0, i64 8
  %.pre = load i64, ptr %.phi.trans.insert, align 8
  br label %37

._crit_edge:                                      ; preds = %agxbsizeof.exit
  %.pre39 = load ptr, ptr %0, align 8
  br label %37

.thread35:                                        ; preds = %agxbsizeof.exit.thread
  %33 = zext nneg i8 %.val.i to i64
  %34 = getelementptr inbounds nuw [31 x i8], ptr %0, i64 0, i64 %33
  store i8 %1, ptr %34, align 1
  %35 = load i8, ptr %3, align 1
  %36 = add i8 %35, 1
  store i8 %36, ptr %3, align 1
  br label %44

37:                                               ; preds = %._crit_edge, %.thread26
  %38 = phi ptr [ %.0.i15, %.thread26 ], [ %.pre39, %._crit_edge ]
  %39 = phi i64 [ %.pre, %.thread26 ], [ %5, %._crit_edge ]
  %40 = getelementptr inbounds nuw i8, ptr %0, i64 8
  %41 = getelementptr inbounds i8, ptr %38, i64 %39
  store i8 %1, ptr %41, align 1
  %42 = load i64, ptr %40, align 8
  %43 = add i64 %42, 1
  store i64 %43, ptr %40, align 8
  br label %44

44:                                               ; preds = %37, %.thread35
  ret void
}